	.file	"spi.c"
__SP_H__ = 0x3e
__SP_L__ = 0x3d
__SREG__ = 0x3f
__tmp_reg__ = 0
__zero_reg__ = 1
	.text
.Ltext0:
	.cfi_sections	.debug_frame
	.section	.text.SPIInit,"ax",@progbits
.global	SPIInit
	.type	SPIInit, @function
SPIInit:
.LFB0:
	.file 1 "spi.c"
	.loc 1 3 0
	.cfi_startproc
/* prologue: function */
/* frame size = 0 */
/* stack size = 0 */
.L__stack_usage = 0
	.loc 1 4 0
	in r24,0x1a
	ori r24,lo8(48)
	out 0x1a,r24
	ret
	.cfi_endproc
.LFE0:
	.size	SPIInit, .-SPIInit
	.section	.text.SPITransfer,"ax",@progbits
.global	SPITransfer
	.type	SPITransfer, @function
SPITransfer:
.LFB1:
	.loc 1 7 0
	.cfi_startproc
.LVL0:
/* prologue: function */
/* frame size = 0 */
/* stack size = 0 */
.L__stack_usage = 0
	.loc 1 8 0
	out 0xf,r24
	.loc 1 9 0
	ldi r24,lo8(64)
.LVL1:
	out 0xe,r24
.LVL2:
	.loc 1 11 0
	ldi r24,lo8(27)
.L4:
	.loc 1 11 0 is_stmt 0 discriminator 1
	out 0xd,r24
	.loc 1 12 0 is_stmt 1 discriminator 1
	sbis 0xe,6
	rjmp .L4
	.loc 1 13 0
	in r24,0xf
	.loc 1 14 0
	ret
	.cfi_endproc
.LFE1:
	.size	SPITransfer, .-SPITransfer
	.section	.text.SPIWriteBlock,"ax",@progbits
.global	SPIWriteBlock
	.type	SPIWriteBlock, @function
SPIWriteBlock:
.LFB2:
	.loc 1 17 0
	.cfi_startproc
.LVL3:
	push r14
.LCFI0:
	.cfi_def_cfa_offset 3
	.cfi_offset 14, -2
	push r15
.LCFI1:
	.cfi_def_cfa_offset 4
	.cfi_offset 15, -3
	push r17
.LCFI2:
	.cfi_def_cfa_offset 5
	.cfi_offset 17, -4
	push r28
.LCFI3:
	.cfi_def_cfa_offset 6
	.cfi_offset 28, -5
	push r29
.LCFI4:
	.cfi_def_cfa_offset 7
	.cfi_offset 29, -6
	push __zero_reg__
.LCFI5:
	.cfi_def_cfa_offset 8
	in r28,__SP_L__
	in r29,__SP_H__
.LCFI6:
	.cfi_def_cfa_register 28
/* prologue: function */
/* frame size = 1 */
/* stack size = 6 */
.L__stack_usage = 6
.LVL4:
	mov r17,r24
	.loc 1 19 0
	movw r14,r24
.LVL5:
.L7:
	mov r24,r14
	sub r24,r17
	.loc 1 19 0 is_stmt 0 discriminator 1
	cp r24,r22
	brsh .L9
	.loc 1 20 0 is_stmt 1 discriminator 2
	movw r30,r14
	ld r24,Z+
	movw r14,r30
.LVL6:
	std Y+1,r22
	rcall SPITransfer
.LVL7:
	ldd r22,Y+1
	rjmp .L7
.L9:
/* epilogue start */
	.loc 1 22 0
	pop __tmp_reg__
	pop r29
	pop r28
	pop r17
	pop r15
	pop r14
.LVL8:
	ret
	.cfi_endproc
.LFE2:
	.size	SPIWriteBlock, .-SPIWriteBlock
	.section	.text.SPITransferBlock,"ax",@progbits
.global	SPITransferBlock
	.type	SPITransferBlock, @function
SPITransferBlock:
.LFB3:
	.loc 1 25 0
	.cfi_startproc
.LVL9:
	push r12
.LCFI7:
	.cfi_def_cfa_offset 3
	.cfi_offset 12, -2
	push r13
.LCFI8:
	.cfi_def_cfa_offset 4
	.cfi_offset 13, -3
	push r15
.LCFI9:
	.cfi_def_cfa_offset 5
	.cfi_offset 15, -4
	push r16
.LCFI10:
	.cfi_def_cfa_offset 6
	.cfi_offset 16, -5
	push r17
.LCFI11:
	.cfi_def_cfa_offset 7
	.cfi_offset 17, -6
	push r28
.LCFI12:
	.cfi_def_cfa_offset 8
	.cfi_offset 28, -7
	push r29
.LCFI13:
	.cfi_def_cfa_offset 9
	.cfi_offset 29, -8
	push __zero_reg__
.LCFI14:
	.cfi_def_cfa_offset 10
	in r28,__SP_L__
	in r29,__SP_H__
.LCFI15:
	.cfi_def_cfa_register 28
/* prologue: function */
/* frame size = 1 */
/* stack size = 8 */
.L__stack_usage = 8
.LVL10:
	mov r15,r24
	movw r16,r22
	.loc 1 27 0
	movw r12,r24
.LVL11:
.L11:
	mov r24,r12
	sub r24,r15
	.loc 1 27 0 is_stmt 0 discriminator 1
	cp r24,r20
	brsh .L13
	.loc 1 28 0 is_stmt 1 discriminator 2
	movw r30,r12
	ld r24,Z+
	movw r12,r30
.LVL12:
	std Y+1,r20
	rcall SPITransfer
.LVL13:
	movw r30,r16
	st Z+,r24
	movw r16,r30
.LVL14:
	ldd r20,Y+1
	rjmp .L11
.L13:
/* epilogue start */
	.loc 1 30 0
	pop __tmp_reg__
	pop r29
	pop r28
	pop r17
	pop r16
	pop r15
	pop r13
	pop r12
.LVL15:
	ret
	.cfi_endproc
.LFE3:
	.size	SPITransferBlock, .-SPITransferBlock
	.text
.Letext0:
	.file 2 "/usr/lib/avr/include/stdint.h"